target datalayout = "e-m:e-p270:32:32-p271:32:32-p272:64:64-i64:64-i128:128-f80:128-n8:16:32:64-S128"
target triple = "x86_64-pc-linux-gnu"

%class.anon = type { ptr, ptr, ptr }

; Function Attrs: inlinehint mustprogress uwtable
define internal noundef ptr @"_ZZN4lean2ir9run_boxedERKNS_16elab_environmentERKNS_7optionsERKNS_4nameEjPP11lean_objectENK3$_0clERNS0_11interpreterE"(ptr noundef nonnull align 8 dereferenceable(24) %0, ptr noundef nonnull align 8 dereferenceable(112) %1) #1 align 2 {
  %3 = alloca ptr, align 8
  %4 = alloca ptr, align 8
  store ptr %0, ptr %3, align 8, !tbaa !3
  store ptr %1, ptr %4, align 8, !tbaa !71
  %5 = load ptr, ptr %3, align 8
  %6 = load ptr, ptr %4, align 8, !tbaa !71
  %7 = getelementptr inbounds nuw %class.anon, ptr %5, i32 0, i32 0
  %8 = load ptr, ptr %7, align 8, !tbaa !328
  %9 = getelementptr inbounds nuw %class.anon, ptr %5, i32 0, i32 1
  %10 = load ptr, ptr %9, align 8, !tbaa !330
  %11 = load i32, ptr %10, align 4, !tbaa !15
  %12 = getelementptr inbounds nuw %class.anon, ptr %5, i32 0, i32 2
  %13 = load ptr, ptr %12, align 8, !tbaa !331
  %14 = load ptr, ptr %13, align 8, !tbaa !50
  %15 = call noundef ptr @_ZN4lean2ir11interpreter10call_boxedERKNS_4nameEjPP11lean_object(ptr noundef nonnull align 8 dereferenceable(112) %6, ptr noundef nonnull align 8 dereferenceable(8) %8, i32 noundef %11, ptr noundef %14)
  ret ptr %15
}

; Function Attrs: mustprogress nounwind uwtable
define linkonce_odr hidden noundef ptr @_ZNKSt9_Any_data9_M_accessEv(ptr noundef nonnull align 8 dereferenceable(16) %0) #2 comdat align 2 {
  %2 = alloca ptr, align 8
  store ptr %0, ptr %2, align 8, !tbaa !321
  %3 = load ptr, ptr %2, align 8
  %4 = getelementptr inbounds [16 x i8], ptr %3, i64 0, i64 0
  ret ptr %4
}

; Function Attrs: mustprogress uwtable
define internal noundef ptr @"_ZSt13__invoke_implIP11lean_objectRZN4lean2ir9run_boxedERKNS2_16elab_environmentERKNS2_7optionsERKNS2_4nameEjPS1_E3$_0JRNS3_11interpreterEEET_St14__invoke_otherOT0_DpOT1_"(ptr noundef nonnull align 8 dereferenceable(24) %0, ptr noundef nonnull align 8 dereferenceable(112) %1) #0 {
  %3 = alloca ptr, align 8
  %4 = alloca ptr, align 8
  store ptr %0, ptr %3, align 8, !tbaa !3
  store ptr %1, ptr %4, align 8, !tbaa !71
  %5 = load ptr, ptr %3, align 8, !tbaa !3
  %6 = load ptr, ptr %4, align 8, !tbaa !71
  %7 = call noundef ptr @"_ZZN4lean2ir9run_boxedERKNS_16elab_environmentERKNS_7optionsERKNS_4nameEjPP11lean_objectENK3$_0clERNS0_11interpreterE"(ptr noundef nonnull align 8 dereferenceable(24) %5, ptr noundef nonnull align 8 dereferenceable(112) %6)
  ret ptr %7
}

; Function Attrs: mustprogress nounwind uwtable
define internal noundef nonnull align 8 dereferenceable(8) ptr @"_ZNKSt9_Any_data9_M_accessIPZN4lean2ir9run_boxedERKNS1_16elab_environmentERKNS1_7optionsERKNS1_4nameEjPP11lean_objectE3$_0EERKT_v"(ptr noundef nonnull align 8 dereferenceable(16) %0) #2 align 2 {
  %2 = alloca ptr, align 8
  store ptr %0, ptr %2, align 8, !tbaa !321
  %3 = load ptr, ptr %2, align 8
  %4 = call noundef ptr @_ZNKSt9_Any_data9_M_accessEv(ptr noundef nonnull align 8 dereferenceable(16) %3) #18
  ret ptr %4
}

; Function Attrs: mustprogress uwtable
define internal noundef ptr @"_ZSt10__invoke_rIP11lean_objectRZN4lean2ir9run_boxedERKNS2_16elab_environmentERKNS2_7optionsERKNS2_4nameEjPS1_E3$_0JRNS3_11interpreterEEENSt9enable_ifIXntsr7is_voidIT_EE5valueESJ_E4typeEOT0_DpOT1_"(ptr noundef nonnull align 8 dereferenceable(24) %0, ptr noundef nonnull align 8 dereferenceable(112) %1) #0 {
  %3 = alloca ptr, align 8
  %4 = alloca ptr, align 8
  store ptr %0, ptr %3, align 8, !tbaa !3
  store ptr %1, ptr %4, align 8, !tbaa !71
  %5 = load ptr, ptr %3, align 8, !tbaa !3
  %6 = load ptr, ptr %4, align 8, !tbaa !71
  %7 = call noundef ptr @"_ZSt13__invoke_implIP11lean_objectRZN4lean2ir9run_boxedERKNS2_16elab_environmentERKNS2_7optionsERKNS2_4nameEjPS1_E3$_0JRNS3_11interpreterEEET_St14__invoke_otherOT0_DpOT1_"(ptr noundef nonnull align 8 dereferenceable(24) %5, ptr noundef nonnull align 8 dereferenceable(112) %6)
  ret ptr %7
}

; Function Attrs: mustprogress nounwind uwtable
define internal noundef ptr @"_ZNSt14_Function_base13_Base_managerIZN4lean2ir9run_boxedERKNS1_16elab_environmentERKNS1_7optionsERKNS1_4nameEjPP11lean_objectE3$_0E14_M_get_pointerERKSt9_Any_data"(ptr noundef nonnull align 8 dereferenceable(16) %0) #2 align 2 {
  %2 = alloca ptr, align 8
  store ptr %0, ptr %2, align 8, !tbaa !321
  %3 = load ptr, ptr %2, align 8, !tbaa !321
  %4 = call noundef nonnull align 8 dereferenceable(8) ptr @"_ZNKSt9_Any_data9_M_accessIPZN4lean2ir9run_boxedERKNS1_16elab_environmentERKNS1_7optionsERKNS1_4nameEjPP11lean_objectE3$_0EERKT_v"(ptr noundef nonnull align 8 dereferenceable(16) %3) #18
  %5 = load ptr, ptr %4, align 8, !tbaa !3
  ret ptr %5
}

; Function Attrs: mustprogress uwtable
define internal noundef ptr @"_ZNSt17_Function_handlerIFP11lean_objectRN4lean2ir11interpreterEEZNS3_9run_boxedERKNS2_16elab_environmentERKNS2_7optionsERKNS2_4nameEjPS1_E3$_0E9_M_invokeERKSt9_Any_dataS5_"(ptr noundef nonnull align 8 dereferenceable(16) %0, ptr noundef nonnull align 8 dereferenceable(112) %1) #0 align 2 {
  %3 = alloca ptr, align 8
  %4 = alloca ptr, align 8
  store ptr %0, ptr %3, align 8, !tbaa !321
  store ptr %1, ptr %4, align 8, !tbaa !71
  %5 = load ptr, ptr %3, align 8, !tbaa !321
  %6 = call noundef ptr @"_ZNSt14_Function_base13_Base_managerIZN4lean2ir9run_boxedERKNS1_16elab_environmentERKNS1_7optionsERKNS1_4nameEjPP11lean_objectE3$_0E14_M_get_pointerERKSt9_Any_data"(ptr noundef nonnull align 8 dereferenceable(16) %5) #18
  %7 = load ptr, ptr %4, align 8, !tbaa !71
  %8 = call noundef ptr @"_ZSt10__invoke_rIP11lean_objectRZN4lean2ir9run_boxedERKNS2_16elab_environmentERKNS2_7optionsERKNS2_4nameEjPS1_E3$_0JRNS3_11interpreterEEENSt9enable_ifIXntsr7is_voidIT_EE5valueESJ_E4typeEOT0_DpOT1_"(ptr noundef nonnull align 8 dereferenceable(24) %6, ptr noundef nonnull align 8 dereferenceable(112) %7)
  ret ptr %8
}