; Function Attrs: mustprogress uwtable
define internal noundef ptr @"_ZNSt17_Function_handlerIFP11lean_objectRN4lean2ir11interpreterEEZNS3_9run_boxedERKNS2_16elab_environmentERKNS2_7optionsERKNS2_4nameEjPS1_E3$_0E9_M_invokeERKSt9_Any_dataS5_"(ptr noundef nonnull readonly align 8 captures(none) dereferenceable(16) %0, ptr noundef nonnull align 8 dereferenceable(112) %1) #0 align 2 {
  %.val = load ptr, ptr %0, align 8, !tbaa !10
  %3 = load ptr, ptr %.val, align 8, !tbaa !139
  %4 = getelementptr inbounds nuw i8, ptr %.val, i64 8
  %5 = load ptr, ptr %4, align 8, !tbaa !141
  %6 = load i32, ptr %5, align 4, !tbaa !38
  %7 = getelementptr inbounds nuw i8, ptr %.val, i64 16
  %8 = load ptr, ptr %7, align 8, !tbaa !142
  %9 = load ptr, ptr %8, align 8, !tbaa !39
  %10 = tail call noundef ptr @_ZN4lean2ir11interpreter10call_boxedERKNS_4nameEjPP11lean_object(ptr noundef nonnull align 8 dereferenceable(112) %1, ptr noundef nonnull align 8 dereferenceable(8) %3, i32 noundef %6, ptr noundef %9)
  ret ptr %10
}